target datalayout = "e-m:e-p270:32:32-p271:32:32-p272:64:64-i64:64-i128:128-f80:128-n8:16:32:64-S128"
target triple = "x86_64-pc-linux-gnu"

@hf_cigi3_line_of_sight_vector_request_los_id = internal global i32 0, align 4
@hf_cigi3_line_of_sight_vector_request_type = internal global i32 0, align 4
@hf_cigi3_line_of_sight_vector_request_source_coord = internal global i32 0, align 4
@hf_cigi3_line_of_sight_vector_request_response_coord = internal global i32 0, align 4
@hf_cigi3_line_of_sight_vector_request_alpha = internal global i32 0, align 4
@hf_cigi3_line_of_sight_vector_request_entity_id = internal global i32 0, align 4
@hf_cigi3_line_of_sight_vector_request_azimuth = internal global i32 0, align 4
@hf_cigi3_line_of_sight_vector_request_elevation = internal global i32 0, align 4
@hf_cigi3_line_of_sight_vector_request_min_range = internal global i32 0, align 4
@hf_cigi3_line_of_sight_vector_request_max_range = internal global i32 0, align 4
@hf_cigi3_line_of_sight_vector_request_source_lat_xoff = internal global i32 0, align 4
@hf_cigi3_line_of_sight_vector_request_source_lon_yoff = internal global i32 0, align 4
@hf_cigi3_line_of_sight_vector_request_source_alt_zoff = internal global i32 0, align 4
@hf_cigi3_line_of_sight_vector_request_material_mask = internal global i32 0, align 4
@hf_cigi3_2_line_of_sight_vector_request_update_period = internal global i32 0, align 4
@cigi_byte_order = internal global i32 0, align 4

; Function Attrs: null_pointer_is_valid sspstrong uwtable
define internal i32 @cigi4_add_line_of_sight_vector_request(ptr noundef %0, ptr noundef %1, ptr noundef %2, ptr noundef %3) #0 {
  %5 = alloca ptr, align 8
  %6 = alloca ptr, align 8
  %7 = alloca ptr, align 8
  %8 = alloca ptr, align 8
  %9 = alloca i32, align 4
  store ptr %0, ptr %5, align 8
  store ptr %1, ptr %6, align 8
  store ptr %2, ptr %7, align 8
  store ptr %3, ptr %8, align 8
  call void @llvm.lifetime.start.p0(i64 4, ptr %9) #5
  store i32 0, ptr %9, align 4
  %10 = load ptr, ptr %7, align 8
  %11 = load i32, ptr @hf_cigi3_line_of_sight_vector_request_los_id, align 4
  %12 = load ptr, ptr %5, align 8
  %13 = load i32, ptr %9, align 4
  %14 = load i32, ptr @cigi_byte_order, align 4
  %15 = call ptr @proto_tree_add_item(ptr noundef %10, i32 noundef %11, ptr noundef %12, i32 noundef %13, i32 noundef 2, i32 noundef %14)
  %16 = load i32, ptr %9, align 4
  %17 = add i32 %16, 2
  store i32 %17, ptr %9, align 4
  %18 = load ptr, ptr %7, align 8
  %19 = load i32, ptr @hf_cigi3_line_of_sight_vector_request_entity_id, align 4
  %20 = load ptr, ptr %5, align 8
  %21 = load i32, ptr %9, align 4
  %22 = load i32, ptr @cigi_byte_order, align 4
  %23 = call ptr @proto_tree_add_item(ptr noundef %18, i32 noundef %19, ptr noundef %20, i32 noundef %21, i32 noundef 2, i32 noundef %22)
  %24 = load i32, ptr %9, align 4
  %25 = add i32 %24, 2
  store i32 %25, ptr %9, align 4
  %26 = load ptr, ptr %7, align 8
  %27 = load i32, ptr @hf_cigi3_line_of_sight_vector_request_type, align 4
  %28 = load ptr, ptr %5, align 8
  %29 = load i32, ptr %9, align 4
  %30 = load i32, ptr @cigi_byte_order, align 4
  %31 = call ptr @proto_tree_add_item(ptr noundef %26, i32 noundef %27, ptr noundef %28, i32 noundef %29, i32 noundef 1, i32 noundef %30)
  %32 = load ptr, ptr %7, align 8
  %33 = load i32, ptr @hf_cigi3_line_of_sight_vector_request_source_coord, align 4
  %34 = load ptr, ptr %5, align 8
  %35 = load i32, ptr %9, align 4
  %36 = load i32, ptr @cigi_byte_order, align 4
  %37 = call ptr @proto_tree_add_item(ptr noundef %32, i32 noundef %33, ptr noundef %34, i32 noundef %35, i32 noundef 1, i32 noundef %36)
  %38 = load ptr, ptr %7, align 8
  %39 = load i32, ptr @hf_cigi3_line_of_sight_vector_request_response_coord, align 4
  %40 = load ptr, ptr %5, align 8
  %41 = load i32, ptr %9, align 4
  %42 = load i32, ptr @cigi_byte_order, align 4
  %43 = call ptr @proto_tree_add_item(ptr noundef %38, i32 noundef %39, ptr noundef %40, i32 noundef %41, i32 noundef 1, i32 noundef %42)
  %44 = load i32, ptr %9, align 4
  %45 = add i32 %44, 1
  store i32 %45, ptr %9, align 4
  %46 = load ptr, ptr %7, align 8
  %47 = load i32, ptr @hf_cigi3_line_of_sight_vector_request_alpha, align 4
  %48 = load ptr, ptr %5, align 8
  %49 = load i32, ptr %9, align 4
  %50 = load i32, ptr @cigi_byte_order, align 4
  %51 = call ptr @proto_tree_add_item(ptr noundef %46, i32 noundef %47, ptr noundef %48, i32 noundef %49, i32 noundef 1, i32 noundef %50)
  %52 = load i32, ptr %9, align 4
  %53 = add i32 %52, 1
  store i32 %53, ptr %9, align 4
  %54 = load ptr, ptr %7, align 8
  %55 = load i32, ptr @hf_cigi3_2_line_of_sight_vector_request_update_period, align 4
  %56 = load ptr, ptr %5, align 8
  %57 = load i32, ptr %9, align 4
  %58 = load i32, ptr @cigi_byte_order, align 4
  %59 = call ptr @proto_tree_add_item(ptr noundef %54, i32 noundef %55, ptr noundef %56, i32 noundef %57, i32 noundef 1, i32 noundef %58)
  %60 = load i32, ptr %9, align 4
  %61 = add i32 %60, 6
  store i32 %61, ptr %9, align 4
  %62 = load ptr, ptr %7, align 8
  %63 = load i32, ptr @hf_cigi3_line_of_sight_vector_request_azimuth, align 4
  %64 = load ptr, ptr %5, align 8
  %65 = load i32, ptr %9, align 4
  %66 = load i32, ptr @cigi_byte_order, align 4
  %67 = call ptr @proto_tree_add_item(ptr noundef %62, i32 noundef %63, ptr noundef %64, i32 noundef %65, i32 noundef 4, i32 noundef %66)
  %68 = load i32, ptr %9, align 4
  %69 = add i32 %68, 4
  store i32 %69, ptr %9, align 4
  %70 = load ptr, ptr %7, align 8
  %71 = load i32, ptr @hf_cigi3_line_of_sight_vector_request_elevation, align 4
  %72 = load ptr, ptr %5, align 8
  %73 = load i32, ptr %9, align 4
  %74 = load i32, ptr @cigi_byte_order, align 4
  %75 = call ptr @proto_tree_add_item(ptr noundef %70, i32 noundef %71, ptr noundef %72, i32 noundef %73, i32 noundef 4, i32 noundef %74)
  %76 = load i32, ptr %9, align 4
  %77 = add i32 %76, 4
  store i32 %77, ptr %9, align 4
  %78 = load ptr, ptr %7, align 8
  %79 = load i32, ptr @hf_cigi3_line_of_sight_vector_request_min_range, align 4
  %80 = load ptr, ptr %5, align 8
  %81 = load i32, ptr %9, align 4
  %82 = load i32, ptr @cigi_byte_order, align 4
  %83 = call ptr @proto_tree_add_item(ptr noundef %78, i32 noundef %79, ptr noundef %80, i32 noundef %81, i32 noundef 4, i32 noundef %82)
  %84 = load i32, ptr %9, align 4
  %85 = add i32 %84, 4
  store i32 %85, ptr %9, align 4
  %86 = load ptr, ptr %7, align 8
  %87 = load i32, ptr @hf_cigi3_line_of_sight_vector_request_max_range, align 4
  %88 = load ptr, ptr %5, align 8
  %89 = load i32, ptr %9, align 4
  %90 = load i32, ptr @cigi_byte_order, align 4
  %91 = call ptr @proto_tree_add_item(ptr noundef %86, i32 noundef %87, ptr noundef %88, i32 noundef %89, i32 noundef 4, i32 noundef %90)
  %92 = load i32, ptr %9, align 4
  %93 = add i32 %92, 4
  store i32 %93, ptr %9, align 4
  %94 = load ptr, ptr %7, align 8
  %95 = load i32, ptr @hf_cigi3_line_of_sight_vector_request_source_lat_xoff, align 4
  %96 = load ptr, ptr %5, align 8
  %97 = load i32, ptr %9, align 4
  %98 = load i32, ptr @cigi_byte_order, align 4
  %99 = call ptr @proto_tree_add_item(ptr noundef %94, i32 noundef %95, ptr noundef %96, i32 noundef %97, i32 noundef 8, i32 noundef %98)
  %100 = load i32, ptr %9, align 4
  %101 = add i32 %100, 8
  store i32 %101, ptr %9, align 4
  %102 = load ptr, ptr %7, align 8
  %103 = load i32, ptr @hf_cigi3_line_of_sight_vector_request_source_lon_yoff, align 4
  %104 = load ptr, ptr %5, align 8
  %105 = load i32, ptr %9, align 4
  %106 = load i32, ptr @cigi_byte_order, align 4
  %107 = call ptr @proto_tree_add_item(ptr noundef %102, i32 noundef %103, ptr noundef %104, i32 noundef %105, i32 noundef 8, i32 noundef %106)
  %108 = load i32, ptr %9, align 4
  %109 = add i32 %108, 8
  store i32 %109, ptr %9, align 4
  %110 = load ptr, ptr %7, align 8
  %111 = load i32, ptr @hf_cigi3_line_of_sight_vector_request_source_alt_zoff, align 4
  %112 = load ptr, ptr %5, align 8
  %113 = load i32, ptr %9, align 4
  %114 = load i32, ptr @cigi_byte_order, align 4
  %115 = call ptr @proto_tree_add_item(ptr noundef %110, i32 noundef %111, ptr noundef %112, i32 noundef %113, i32 noundef 8, i32 noundef %114)
  %116 = load i32, ptr %9, align 4
  %117 = add i32 %116, 8
  store i32 %117, ptr %9, align 4
  %118 = load ptr, ptr %7, align 8
  %119 = load i32, ptr @hf_cigi3_line_of_sight_vector_request_material_mask, align 4
  %120 = load ptr, ptr %5, align 8
  %121 = load i32, ptr %9, align 4
  %122 = load i32, ptr @cigi_byte_order, align 4
  %123 = call ptr @proto_tree_add_item(ptr noundef %118, i32 noundef %119, ptr noundef %120, i32 noundef %121, i32 noundef 4, i32 noundef %122)
  %124 = load i32, ptr %9, align 4
  %125 = add i32 %124, 8
  store i32 %125, ptr %9, align 4
  %126 = load i32, ptr %9, align 4
  call void @llvm.lifetime.end.p0(i64 4, ptr %9) #5
  ret i32 %126
}